target datalayout = "e-m:e-p270:32:32-p271:32:32-p272:64:64-i64:64-i128:128-f80:128-n8:16:32:64-S128"
target triple = "x86_64-pc-linux-gnu"

@tmp_keep_remains = internal global i32 0, align 4
@object_allocations_reporter_registered = internal global i32 0, align 4

; Function Attrs: nounwind sspstrong uwtable
define internal i64 @trace_object_allocations_debug_start(i64 noundef %0) #0 {
  %2 = alloca i64, align 8
  store i64 %0, ptr %2, align 8, !tbaa !6
  store i32 1, ptr @tmp_keep_remains, align 4, !tbaa !21
  %3 = load i32, ptr @object_allocations_reporter_registered, align 4, !tbaa !21
  %4 = icmp eq i32 %3, 0
  br i1 %4, label %5, label %7

5:                                                ; preds = %1
  store i32 1, ptr @object_allocations_reporter_registered, align 4, !tbaa !21
  %6 = call i32 @rb_bug_reporter_add(ptr noundef @object_allocations_reporter, ptr noundef null)
  br label %7

7:                                                ; preds = %5, %1
  %8 = load i64, ptr %2, align 8, !tbaa !6
  %9 = call i64 @trace_object_allocations_start(i64 noundef %8)
  ret i64 %9
}