; Function Attrs: nounwind sspstrong uwtable
define internal noundef i64 @trace_object_allocations_debug_start(i64 %0) #0 {
  store i1 true, ptr @tmp_keep_remains, align 4
  %.b = load i1, ptr @object_allocations_reporter_registered, align 4
  br i1 %.b, label %4, label %2

2:                                                ; preds = %1
  store i1 true, ptr @object_allocations_reporter_registered, align 4
  %3 = tail call i32 @rb_bug_reporter_add(ptr noundef nonnull @object_allocations_reporter, ptr noundef null) #10
  br label %4

4:                                                ; preds = %2, %1
  %5 = tail call i64 @trace_object_allocations_start(i64 poison)
  ret i64 4
}